target datalayout = "e-m:e-p270:32:32-p271:32:32-p272:64:64-i64:64-i128:128-f80:128-n8:16:32:64-S128"
target triple = "x86_64-pc-linux-gnu"

; Function Attrs: nounwind uwtable
define internal void @put_h264_chroma_mc2_8_c(ptr noundef %0, ptr noundef %1, i64 noundef %2, i32 noundef %3, i32 noundef %4, i32 noundef %5) #1 {
  %7 = alloca ptr, align 8
  %8 = alloca ptr, align 8
  %9 = alloca i64, align 8
  %10 = alloca i32, align 4
  %11 = alloca i32, align 4
  %12 = alloca i32, align 4
  %13 = alloca ptr, align 8
  %14 = alloca ptr, align 8
  %15 = alloca i32, align 4
  %16 = alloca i32, align 4
  %17 = alloca i32, align 4
  %18 = alloca i32, align 4
  %19 = alloca i32, align 4
  %20 = alloca i32, align 4
  %21 = alloca i64, align 8
  store ptr %0, ptr %7, align 8, !tbaa !12
  store ptr %1, ptr %8, align 8, !tbaa !12
  store i64 %2, ptr %9, align 8, !tbaa !14
  store i32 %3, ptr %10, align 4, !tbaa !9
  store i32 %4, ptr %11, align 4, !tbaa !9
  store i32 %5, ptr %12, align 4, !tbaa !9
  call void @llvm.lifetime.start.p0(i64 8, ptr %13) #3
  %22 = load ptr, ptr %7, align 8, !tbaa !12
  store ptr %22, ptr %13, align 8, !tbaa !12
  call void @llvm.lifetime.start.p0(i64 8, ptr %14) #3
  %23 = load ptr, ptr %8, align 8, !tbaa !12
  store ptr %23, ptr %14, align 8, !tbaa !12
  call void @llvm.lifetime.start.p0(i64 4, ptr %15) #3
  %24 = load i32, ptr %11, align 4, !tbaa !9
  %25 = sub nsw i32 8, %24
  %26 = load i32, ptr %12, align 4, !tbaa !9
  %27 = sub nsw i32 8, %26
  %28 = mul nsw i32 %25, %27
  store i32 %28, ptr %15, align 4, !tbaa !9
  call void @llvm.lifetime.start.p0(i64 4, ptr %16) #3
  %29 = load i32, ptr %11, align 4, !tbaa !9
  %30 = load i32, ptr %12, align 4, !tbaa !9
  %31 = sub nsw i32 8, %30
  %32 = mul nsw i32 %29, %31
  store i32 %32, ptr %16, align 4, !tbaa !9
  call void @llvm.lifetime.start.p0(i64 4, ptr %17) #3
  %33 = load i32, ptr %11, align 4, !tbaa !9
  %34 = sub nsw i32 8, %33
  %35 = load i32, ptr %12, align 4, !tbaa !9
  %36 = mul nsw i32 %34, %35
  store i32 %36, ptr %17, align 4, !tbaa !9
  call void @llvm.lifetime.start.p0(i64 4, ptr %18) #3
  %37 = load i32, ptr %11, align 4, !tbaa !9
  %38 = load i32, ptr %12, align 4, !tbaa !9
  %39 = mul nsw i32 %37, %38
  store i32 %39, ptr %18, align 4, !tbaa !9
  call void @llvm.lifetime.start.p0(i64 4, ptr %19) #3
  %40 = load i64, ptr %9, align 8, !tbaa !14
  %41 = ashr i64 %40, 0
  store i64 %41, ptr %9, align 8, !tbaa !14
  %42 = load i32, ptr %18, align 4, !tbaa !9
  %43 = icmp ne i32 %42, 0
  br i1 %43, label %44, label %132

44:                                               ; preds = %6
  store i32 0, ptr %19, align 4, !tbaa !9
  br label %45

45:                                               ; preds = %128, %44
  %46 = load i32, ptr %19, align 4, !tbaa !9
  %47 = load i32, ptr %10, align 4, !tbaa !9
  %48 = icmp slt i32 %46, %47
  br i1 %48, label %49, label %131

49:                                               ; preds = %45
  %50 = load i32, ptr %15, align 4, !tbaa !9
  %51 = load ptr, ptr %14, align 8, !tbaa !12
  %52 = getelementptr inbounds i8, ptr %51, i64 0
  %53 = load i8, ptr %52, align 1, !tbaa !45
  %54 = zext i8 %53 to i32
  %55 = mul nsw i32 %50, %54
  %56 = load i32, ptr %16, align 4, !tbaa !9
  %57 = load ptr, ptr %14, align 8, !tbaa !12
  %58 = getelementptr inbounds i8, ptr %57, i64 1
  %59 = load i8, ptr %58, align 1, !tbaa !45
  %60 = zext i8 %59 to i32
  %61 = mul nsw i32 %56, %60
  %62 = add nsw i32 %55, %61
  %63 = load i32, ptr %17, align 4, !tbaa !9
  %64 = load ptr, ptr %14, align 8, !tbaa !12
  %65 = load i64, ptr %9, align 8, !tbaa !14
  %66 = add nsw i64 %65, 0
  %67 = getelementptr inbounds i8, ptr %64, i64 %66
  %68 = load i8, ptr %67, align 1, !tbaa !45
  %69 = zext i8 %68 to i32
  %70 = mul nsw i32 %63, %69
  %71 = add nsw i32 %62, %70
  %72 = load i32, ptr %18, align 4, !tbaa !9
  %73 = load ptr, ptr %14, align 8, !tbaa !12
  %74 = load i64, ptr %9, align 8, !tbaa !14
  %75 = add nsw i64 %74, 1
  %76 = getelementptr inbounds i8, ptr %73, i64 %75
  %77 = load i8, ptr %76, align 1, !tbaa !45
  %78 = zext i8 %77 to i32
  %79 = mul nsw i32 %72, %78
  %80 = add nsw i32 %71, %79
  %81 = add nsw i32 %80, 32
  %82 = ashr i32 %81, 6
  %83 = trunc i32 %82 to i8
  %84 = load ptr, ptr %13, align 8, !tbaa !12
  %85 = getelementptr inbounds i8, ptr %84, i64 0
  store i8 %83, ptr %85, align 1, !tbaa !45
  %86 = load i32, ptr %15, align 4, !tbaa !9
  %87 = load ptr, ptr %14, align 8, !tbaa !12
  %88 = getelementptr inbounds i8, ptr %87, i64 1
  %89 = load i8, ptr %88, align 1, !tbaa !45
  %90 = zext i8 %89 to i32
  %91 = mul nsw i32 %86, %90
  %92 = load i32, ptr %16, align 4, !tbaa !9
  %93 = load ptr, ptr %14, align 8, !tbaa !12
  %94 = getelementptr inbounds i8, ptr %93, i64 2
  %95 = load i8, ptr %94, align 1, !tbaa !45
  %96 = zext i8 %95 to i32
  %97 = mul nsw i32 %92, %96
  %98 = add nsw i32 %91, %97
  %99 = load i32, ptr %17, align 4, !tbaa !9
  %100 = load ptr, ptr %14, align 8, !tbaa !12
  %101 = load i64, ptr %9, align 8, !tbaa !14
  %102 = add nsw i64 %101, 1
  %103 = getelementptr inbounds i8, ptr %100, i64 %102
  %104 = load i8, ptr %103, align 1, !tbaa !45
  %105 = zext i8 %104 to i32
  %106 = mul nsw i32 %99, %105
  %107 = add nsw i32 %98, %106
  %108 = load i32, ptr %18, align 4, !tbaa !9
  %109 = load ptr, ptr %14, align 8, !tbaa !12
  %110 = load i64, ptr %9, align 8, !tbaa !14
  %111 = add nsw i64 %110, 2
  %112 = getelementptr inbounds i8, ptr %109, i64 %111
  %113 = load i8, ptr %112, align 1, !tbaa !45
  %114 = zext i8 %113 to i32
  %115 = mul nsw i32 %108, %114
  %116 = add nsw i32 %107, %115
  %117 = add nsw i32 %116, 32
  %118 = ashr i32 %117, 6
  %119 = trunc i32 %118 to i8
  %120 = load ptr, ptr %13, align 8, !tbaa !12
  %121 = getelementptr inbounds i8, ptr %120, i64 1
  store i8 %119, ptr %121, align 1, !tbaa !45
  %122 = load i64, ptr %9, align 8, !tbaa !14
  %123 = load ptr, ptr %13, align 8, !tbaa !12
  %124 = getelementptr inbounds i8, ptr %123, i64 %122
  store ptr %124, ptr %13, align 8, !tbaa !12
  %125 = load i64, ptr %9, align 8, !tbaa !14
  %126 = load ptr, ptr %14, align 8, !tbaa !12
  %127 = getelementptr inbounds i8, ptr %126, i64 %125
  store ptr %127, ptr %14, align 8, !tbaa !12
  br label %128

128:                                              ; preds = %49
  %129 = load i32, ptr %19, align 4, !tbaa !9
  %130 = add nsw i32 %129, 1
  store i32 %130, ptr %19, align 4, !tbaa !9
  br label %45, !llvm.loop !52

131:                                              ; preds = %45
  br label %242

132:                                              ; preds = %6
  %133 = load i32, ptr %16, align 4, !tbaa !9
  %134 = load i32, ptr %17, align 4, !tbaa !9
  %135 = add nsw i32 %133, %134
  %136 = icmp ne i32 %135, 0
  br i1 %136, label %137, label %203

137:                                              ; preds = %132
  call void @llvm.lifetime.start.p0(i64 4, ptr %20) #3
  %138 = load i32, ptr %16, align 4, !tbaa !9
  %139 = load i32, ptr %17, align 4, !tbaa !9
  %140 = add nsw i32 %138, %139
  store i32 %140, ptr %20, align 4, !tbaa !9
  call void @llvm.lifetime.start.p0(i64 8, ptr %21) #3
  %141 = load i32, ptr %17, align 4, !tbaa !9
  %142 = icmp ne i32 %141, 0
  br i1 %142, label %143, label %145

143:                                              ; preds = %137
  %144 = load i64, ptr %9, align 8, !tbaa !14
  br label %146

145:                                              ; preds = %137
  br label %146

146:                                              ; preds = %145, %143
  %147 = phi i64 [ %144, %143 ], [ 1, %145 ]
  store i64 %147, ptr %21, align 8, !tbaa !14
  store i32 0, ptr %19, align 4, !tbaa !9
  br label %148

148:                                              ; preds = %199, %146
  %149 = load i32, ptr %19, align 4, !tbaa !9
  %150 = load i32, ptr %10, align 4, !tbaa !9
  %151 = icmp slt i32 %149, %150
  br i1 %151, label %152, label %202

152:                                              ; preds = %148
  %153 = load i32, ptr %15, align 4, !tbaa !9
  %154 = load ptr, ptr %14, align 8, !tbaa !12
  %155 = getelementptr inbounds i8, ptr %154, i64 0
  %156 = load i8, ptr %155, align 1, !tbaa !45
  %157 = zext i8 %156 to i32
  %158 = mul nsw i32 %153, %157
  %159 = load i32, ptr %20, align 4, !tbaa !9
  %160 = load ptr, ptr %14, align 8, !tbaa !12
  %161 = load i64, ptr %21, align 8, !tbaa !14
  %162 = add nsw i64 %161, 0
  %163 = getelementptr inbounds i8, ptr %160, i64 %162
  %164 = load i8, ptr %163, align 1, !tbaa !45
  %165 = zext i8 %164 to i32
  %166 = mul nsw i32 %159, %165
  %167 = add nsw i32 %158, %166
  %168 = add nsw i32 %167, 32
  %169 = ashr i32 %168, 6
  %170 = trunc i32 %169 to i8
  %171 = load ptr, ptr %13, align 8, !tbaa !12
  %172 = getelementptr inbounds i8, ptr %171, i64 0
  store i8 %170, ptr %172, align 1, !tbaa !45
  %173 = load i32, ptr %15, align 4, !tbaa !9
  %174 = load ptr, ptr %14, align 8, !tbaa !12
  %175 = getelementptr inbounds i8, ptr %174, i64 1
  %176 = load i8, ptr %175, align 1, !tbaa !45
  %177 = zext i8 %176 to i32
  %178 = mul nsw i32 %173, %177
  %179 = load i32, ptr %20, align 4, !tbaa !9
  %180 = load ptr, ptr %14, align 8, !tbaa !12
  %181 = load i64, ptr %21, align 8, !tbaa !14
  %182 = add nsw i64 %181, 1
  %183 = getelementptr inbounds i8, ptr %180, i64 %182
  %184 = load i8, ptr %183, align 1, !tbaa !45
  %185 = zext i8 %184 to i32
  %186 = mul nsw i32 %179, %185
  %187 = add nsw i32 %178, %186
  %188 = add nsw i32 %187, 32
  %189 = ashr i32 %188, 6
  %190 = trunc i32 %189 to i8
  %191 = load ptr, ptr %13, align 8, !tbaa !12
  %192 = getelementptr inbounds i8, ptr %191, i64 1
  store i8 %190, ptr %192, align 1, !tbaa !45
  %193 = load i64, ptr %9, align 8, !tbaa !14
  %194 = load ptr, ptr %13, align 8, !tbaa !12
  %195 = getelementptr inbounds i8, ptr %194, i64 %193
  store ptr %195, ptr %13, align 8, !tbaa !12
  %196 = load i64, ptr %9, align 8, !tbaa !14
  %197 = load ptr, ptr %14, align 8, !tbaa !12
  %198 = getelementptr inbounds i8, ptr %197, i64 %196
  store ptr %198, ptr %14, align 8, !tbaa !12
  br label %199

199:                                              ; preds = %152
  %200 = load i32, ptr %19, align 4, !tbaa !9
  %201 = add nsw i32 %200, 1
  store i32 %201, ptr %19, align 4, !tbaa !9
  br label %148, !llvm.loop !53

202:                                              ; preds = %148
  call void @llvm.lifetime.end.p0(i64 8, ptr %21) #3
  call void @llvm.lifetime.end.p0(i64 4, ptr %20) #3
  br label %241

203:                                              ; preds = %132
  store i32 0, ptr %19, align 4, !tbaa !9
  br label %204

204:                                              ; preds = %237, %203
  %205 = load i32, ptr %19, align 4, !tbaa !9
  %206 = load i32, ptr %10, align 4, !tbaa !9
  %207 = icmp slt i32 %205, %206
  br i1 %207, label %208, label %240

208:                                              ; preds = %204
  %209 = load i32, ptr %15, align 4, !tbaa !9
  %210 = load ptr, ptr %14, align 8, !tbaa !12
  %211 = getelementptr inbounds i8, ptr %210, i64 0
  %212 = load i8, ptr %211, align 1, !tbaa !45
  %213 = zext i8 %212 to i32
  %214 = mul nsw i32 %209, %213
  %215 = add nsw i32 %214, 32
  %216 = ashr i32 %215, 6
  %217 = trunc i32 %216 to i8
  %218 = load ptr, ptr %13, align 8, !tbaa !12
  %219 = getelementptr inbounds i8, ptr %218, i64 0
  store i8 %217, ptr %219, align 1, !tbaa !45
  %220 = load i32, ptr %15, align 4, !tbaa !9
  %221 = load ptr, ptr %14, align 8, !tbaa !12
  %222 = getelementptr inbounds i8, ptr %221, i64 1
  %223 = load i8, ptr %222, align 1, !tbaa !45
  %224 = zext i8 %223 to i32
  %225 = mul nsw i32 %220, %224
  %226 = add nsw i32 %225, 32
  %227 = ashr i32 %226, 6
  %228 = trunc i32 %227 to i8
  %229 = load ptr, ptr %13, align 8, !tbaa !12
  %230 = getelementptr inbounds i8, ptr %229, i64 1
  store i8 %228, ptr %230, align 1, !tbaa !45
  %231 = load i64, ptr %9, align 8, !tbaa !14
  %232 = load ptr, ptr %13, align 8, !tbaa !12
  %233 = getelementptr inbounds i8, ptr %232, i64 %231
  store ptr %233, ptr %13, align 8, !tbaa !12
  %234 = load i64, ptr %9, align 8, !tbaa !14
  %235 = load ptr, ptr %14, align 8, !tbaa !12
  %236 = getelementptr inbounds i8, ptr %235, i64 %234
  store ptr %236, ptr %14, align 8, !tbaa !12
  br label %237

237:                                              ; preds = %208
  %238 = load i32, ptr %19, align 4, !tbaa !9
  %239 = add nsw i32 %238, 1
  store i32 %239, ptr %19, align 4, !tbaa !9
  br label %204, !llvm.loop !54

240:                                              ; preds = %204
  br label %241

241:                                              ; preds = %240, %202
  br label %242

242:                                              ; preds = %241, %131
  call void @llvm.lifetime.end.p0(i64 4, ptr %19) #3
  call void @llvm.lifetime.end.p0(i64 4, ptr %18) #3
  call void @llvm.lifetime.end.p0(i64 4, ptr %17) #3
  call void @llvm.lifetime.end.p0(i64 4, ptr %16) #3
  call void @llvm.lifetime.end.p0(i64 4, ptr %15) #3
  call void @llvm.lifetime.end.p0(i64 8, ptr %14) #3
  call void @llvm.lifetime.end.p0(i64 8, ptr %13) #3
  ret void
}