; Function Attrs: nofree norecurse nosync nounwind memory(argmem: readwrite) uwtable
define internal void @put_h264_chroma_mc2_8_c(ptr noundef writeonly captures(none) %0, ptr noundef readonly captures(none) %1, i64 noundef %2, i32 noundef %3, i32 noundef %4, i32 noundef %5) #1 {
  %7 = sub nsw i32 8, %4
  %8 = sub nsw i32 8, %5
  %9 = mul nsw i32 %8, %7
  %10 = mul nsw i32 %8, %4
  %11 = mul nsw i32 %7, %5
  %12 = mul nsw i32 %5, %4
  %.not = icmp eq i32 %12, 0
  br i1 %.not, label %58, label %.preheader89

.preheader89:                                     ; preds = %6
  %13 = icmp sgt i32 %3, 0
  br i1 %13, label %.lr.ph, label %.loopexit

.lr.ph:                                           ; preds = %.preheader89, %.lr.ph
  %.093 = phi ptr [ %56, %.lr.ph ], [ %0, %.preheader89 ]
  %.07892 = phi i32 [ %57, %.lr.ph ], [ 0, %.preheader89 ]
  %.08191 = phi ptr [ %21, %.lr.ph ], [ %1, %.preheader89 ]
  %14 = load i8, ptr %.08191, align 1, !tbaa !35
  %15 = zext i8 %14 to i32
  %16 = mul nsw i32 %9, %15
  %17 = getelementptr inbounds nuw i8, ptr %.08191, i64 1
  %18 = load i8, ptr %17, align 1, !tbaa !35
  %19 = zext i8 %18 to i32
  %20 = mul nsw i32 %10, %19
  %21 = getelementptr inbounds i8, ptr %.08191, i64 %2
  %22 = load i8, ptr %21, align 1, !tbaa !35
  %23 = zext i8 %22 to i32
  %24 = mul nsw i32 %11, %23
  %25 = getelementptr i8, ptr %21, i64 1
  %26 = load i8, ptr %25, align 1, !tbaa !35
  %27 = zext i8 %26 to i32
  %28 = mul nsw i32 %12, %27
  %29 = add i32 %16, 32
  %30 = add i32 %29, %20
  %31 = add i32 %30, %24
  %32 = add i32 %31, %28
  %33 = lshr i32 %32, 6
  %34 = trunc i32 %33 to i8
  store i8 %34, ptr %.093, align 1, !tbaa !35
  %35 = load i8, ptr %17, align 1, !tbaa !35
  %36 = zext i8 %35 to i32
  %37 = mul nsw i32 %9, %36
  %38 = getelementptr inbounds nuw i8, ptr %.08191, i64 2
  %39 = load i8, ptr %38, align 1, !tbaa !35
  %40 = zext i8 %39 to i32
  %41 = mul nsw i32 %10, %40
  %42 = load i8, ptr %25, align 1, !tbaa !35
  %43 = zext i8 %42 to i32
  %44 = mul nsw i32 %11, %43
  %45 = getelementptr i8, ptr %21, i64 2
  %46 = load i8, ptr %45, align 1, !tbaa !35
  %47 = zext i8 %46 to i32
  %48 = mul nsw i32 %12, %47
  %49 = add i32 %37, 32
  %50 = add i32 %49, %41
  %51 = add i32 %50, %44
  %52 = add i32 %51, %48
  %53 = lshr i32 %52, 6
  %54 = trunc i32 %53 to i8
  %55 = getelementptr inbounds nuw i8, ptr %.093, i64 1
  store i8 %54, ptr %55, align 1, !tbaa !35
  %56 = getelementptr inbounds i8, ptr %.093, i64 %2
  %57 = add nuw nsw i32 %.07892, 1
  %exitcond.not = icmp eq i32 %57, %3
  br i1 %exitcond.not, label %.loopexit, label %.lr.ph, !llvm.loop !42

58:                                               ; preds = %6
  %59 = add nsw i32 %10, %11
  %.not86 = icmp eq i32 %59, 0
  br i1 %.not86, label %.preheader, label %61

.preheader:                                       ; preds = %58
  %60 = icmp sgt i32 %3, 0
  br i1 %60, label %.lr.ph101, label %.loopexit

61:                                               ; preds = %58
  %.not87 = icmp eq i32 %11, 0
  %62 = select i1 %.not87, i64 1, i64 %2
  %63 = icmp sgt i32 %3, 0
  br i1 %63, label %.lr.ph97, label %.loopexit

.lr.ph97:                                         ; preds = %61, %.lr.ph97
  %.196 = phi ptr [ %88, %.lr.ph97 ], [ %0, %61 ]
  %.17995 = phi i32 [ %90, %.lr.ph97 ], [ 0, %61 ]
  %.18294 = phi ptr [ %89, %.lr.ph97 ], [ %1, %61 ]
  %64 = load i8, ptr %.18294, align 1, !tbaa !35
  %65 = zext i8 %64 to i32
  %66 = mul nsw i32 %9, %65
  %67 = getelementptr inbounds i8, ptr %.18294, i64 %62
  %68 = load i8, ptr %67, align 1, !tbaa !35
  %69 = zext i8 %68 to i32
  %70 = mul nsw i32 %59, %69
  %71 = add i32 %66, 32
  %72 = add i32 %71, %70
  %73 = lshr i32 %72, 6
  %74 = trunc i32 %73 to i8
  store i8 %74, ptr %.196, align 1, !tbaa !35
  %75 = getelementptr inbounds nuw i8, ptr %.18294, i64 1
  %76 = load i8, ptr %75, align 1, !tbaa !35
  %77 = zext i8 %76 to i32
  %78 = mul nsw i32 %9, %77
  %79 = getelementptr i8, ptr %67, i64 1
  %80 = load i8, ptr %79, align 1, !tbaa !35
  %81 = zext i8 %80 to i32
  %82 = mul nsw i32 %59, %81
  %83 = add i32 %78, 32
  %84 = add i32 %83, %82
  %85 = lshr i32 %84, 6
  %86 = trunc i32 %85 to i8
  %87 = getelementptr inbounds nuw i8, ptr %.196, i64 1
  store i8 %86, ptr %87, align 1, !tbaa !35
  %88 = getelementptr inbounds i8, ptr %.196, i64 %2
  %89 = getelementptr inbounds i8, ptr %.18294, i64 %2
  %90 = add nuw nsw i32 %.17995, 1
  %exitcond104.not = icmp eq i32 %90, %3
  br i1 %exitcond104.not, label %.loopexit, label %.lr.ph97, !llvm.loop !43

.lr.ph101:                                        ; preds = %.preheader, %.lr.ph101
  %.2100 = phi ptr [ %105, %.lr.ph101 ], [ %0, %.preheader ]
  %.28099 = phi i32 [ %107, %.lr.ph101 ], [ 0, %.preheader ]
  %.28398 = phi ptr [ %106, %.lr.ph101 ], [ %1, %.preheader ]
  %91 = load i8, ptr %.28398, align 1, !tbaa !35
  %92 = zext i8 %91 to i32
  %93 = mul nsw i32 %9, %92
  %94 = add nsw i32 %93, 32
  %95 = lshr i32 %94, 6
  %96 = trunc i32 %95 to i8
  store i8 %96, ptr %.2100, align 1, !tbaa !35
  %97 = getelementptr inbounds nuw i8, ptr %.28398, i64 1
  %98 = load i8, ptr %97, align 1, !tbaa !35
  %99 = zext i8 %98 to i32
  %100 = mul nsw i32 %9, %99
  %101 = add nsw i32 %100, 32
  %102 = lshr i32 %101, 6
  %103 = trunc i32 %102 to i8
  %104 = getelementptr inbounds nuw i8, ptr %.2100, i64 1
  store i8 %103, ptr %104, align 1, !tbaa !35
  %105 = getelementptr inbounds i8, ptr %.2100, i64 %2
  %106 = getelementptr inbounds i8, ptr %.28398, i64 %2
  %107 = add nuw nsw i32 %.28099, 1
  %exitcond105.not = icmp eq i32 %107, %3
  br i1 %exitcond105.not, label %.loopexit, label %.lr.ph101, !llvm.loop !44

.loopexit:                                        ; preds = %.lr.ph, %.lr.ph97, %.lr.ph101, %.preheader89, %61, %.preheader
  ret void
}